target datalayout = "e-m:e-p270:32:32-p271:32:32-p272:64:64-i64:64-i128:128-f80:128-n8:16:32:64-S128"
target triple = "x86_64-pc-linux-gnu"

%struct.URLContext = type { ptr, ptr, ptr, ptr, i32, i32, i32, i32, %struct.AVIOInterruptCB, i64, ptr, ptr, i32 }
%struct.AVIOInterruptCB = type { ptr, ptr }
%struct.URLProtocol = type { ptr, ptr, ptr, ptr, ptr, ptr, ptr, ptr, ptr, ptr, ptr, ptr, ptr, ptr, ptr, ptr, i32, i32, ptr, ptr, ptr, ptr, ptr, ptr, ptr }

; Function Attrs: nounwind uwtable
define i32 @ffurl_close(ptr noundef %0) #1 {
  %2 = alloca ptr, align 8
  store ptr %0, ptr %2, align 8, !tbaa !22
  %3 = call i32 @ffurl_closep(ptr noundef %2)
  ret i32 %3
}

; Function Attrs: nounwind uwtable
define i32 @avio_check(ptr noundef %0, i32 noundef %1) #1 {
  %3 = alloca i32, align 4
  %4 = alloca ptr, align 8
  %5 = alloca i32, align 4
  %6 = alloca ptr, align 8
  %7 = alloca i32, align 4
  %8 = alloca i32, align 4
  store ptr %0, ptr %4, align 8, !tbaa !20
  store i32 %1, ptr %5, align 4, !tbaa !21
  call void @llvm.lifetime.start.p0(i64 8, ptr %6) #10
  call void @llvm.lifetime.start.p0(i64 4, ptr %7) #10
  %9 = load ptr, ptr %4, align 8, !tbaa !20
  %10 = load i32, ptr %5, align 4, !tbaa !21
  %11 = call i32 @ffurl_alloc(ptr noundef %6, ptr noundef %9, i32 noundef %10, ptr noundef null)
  store i32 %11, ptr %7, align 4, !tbaa !21
  %12 = load i32, ptr %7, align 4, !tbaa !21
  %13 = icmp slt i32 %12, 0
  br i1 %13, label %14, label %16

14:                                               ; preds = %2
  %15 = load i32, ptr %7, align 4, !tbaa !21
  store i32 %15, ptr %3, align 4
  store i32 1, ptr %8, align 4
  br label %44

16:                                               ; preds = %2
  %17 = load ptr, ptr %6, align 8, !tbaa !22
  %18 = getelementptr inbounds nuw %struct.URLContext, ptr %17, i32 0, i32 1
  %19 = load ptr, ptr %18, align 8, !tbaa !38
  %20 = getelementptr inbounds nuw %struct.URLProtocol, ptr %19, i32 0, i32 18
  %21 = load ptr, ptr %20, align 8, !tbaa !99
  %22 = icmp ne ptr %21, null
  br i1 %22, label %23, label %32

23:                                               ; preds = %16
  %24 = load ptr, ptr %6, align 8, !tbaa !22
  %25 = getelementptr inbounds nuw %struct.URLContext, ptr %24, i32 0, i32 1
  %26 = load ptr, ptr %25, align 8, !tbaa !38
  %27 = getelementptr inbounds nuw %struct.URLProtocol, ptr %26, i32 0, i32 18
  %28 = load ptr, ptr %27, align 8, !tbaa !99
  %29 = load ptr, ptr %6, align 8, !tbaa !22
  %30 = load i32, ptr %5, align 4, !tbaa !21
  %31 = call i32 %28(ptr noundef %29, i32 noundef %30)
  store i32 %31, ptr %7, align 4, !tbaa !21
  br label %40

32:                                               ; preds = %16
  %33 = load ptr, ptr %6, align 8, !tbaa !22
  %34 = call i32 @ffurl_connect(ptr noundef %33, ptr noundef null)
  store i32 %34, ptr %7, align 4, !tbaa !21
  %35 = load i32, ptr %7, align 4, !tbaa !21
  %36 = icmp sge i32 %35, 0
  br i1 %36, label %37, label %39

37:                                               ; preds = %32
  %38 = load i32, ptr %5, align 4, !tbaa !21
  store i32 %38, ptr %7, align 4, !tbaa !21
  br label %39

39:                                               ; preds = %37, %32
  br label %40

40:                                               ; preds = %39, %23
  %41 = load ptr, ptr %6, align 8, !tbaa !22
  %42 = call i32 @ffurl_close(ptr noundef %41)
  %43 = load i32, ptr %7, align 4, !tbaa !21
  store i32 %43, ptr %3, align 4
  store i32 1, ptr %8, align 4
  br label %44

44:                                               ; preds = %40, %14
  call void @llvm.lifetime.end.p0(i64 4, ptr %7) #10
  call void @llvm.lifetime.end.p0(i64 8, ptr %6) #10
  %45 = load i32, ptr %3, align 4
  ret i32 %45
}