; Function Attrs: nounwind uwtable
define i32 @avio_check(ptr noundef %0, i32 noundef %1) local_unnamed_addr #3 {
  %3 = alloca ptr, align 8
  %4 = alloca ptr, align 8
  call void @llvm.lifetime.start.p0(i64 8, ptr nonnull %4) #12
  %5 = call i32 @ffurl_alloc(ptr noundef nonnull %4, ptr noundef %0, i32 noundef %1, ptr noundef null)
  %6 = icmp slt i32 %5, 0
  br i1 %6, label %20, label %7

7:                                                ; preds = %2
  %8 = load ptr, ptr %4, align 8, !tbaa !41
  %9 = getelementptr inbounds nuw i8, ptr %8, i64 8
  %10 = load ptr, ptr %9, align 8, !tbaa !21
  %11 = getelementptr inbounds nuw i8, ptr %10, i64 136
  %12 = load ptr, ptr %11, align 8, !tbaa !86
  %.not = icmp eq ptr %12, null
  br i1 %.not, label %15, label %13

13:                                               ; preds = %7
  %14 = tail call i32 %12(ptr noundef nonnull %8, i32 noundef %1) #12
  br label %18

15:                                               ; preds = %7
  %16 = tail call i32 @ffurl_connect(ptr noundef nonnull %8, ptr noundef null)
  %17 = icmp slt i32 %16, 0
  %spec.select = select i1 %17, i32 %16, i32 %1
  br label %18

18:                                               ; preds = %15, %13
  %.0 = phi i32 [ %14, %13 ], [ %spec.select, %15 ]
  call void @llvm.lifetime.start.p0(i64 8, ptr nonnull %3)
  store ptr %8, ptr %3, align 8, !tbaa !41
  %19 = call i32 @ffurl_closep(ptr noundef nonnull %3)
  call void @llvm.lifetime.end.p0(i64 8, ptr nonnull %3)
  br label %20

20:                                               ; preds = %2, %18
  %.08 = phi i32 [ %.0, %18 ], [ %5, %2 ]
  call void @llvm.lifetime.end.p0(i64 8, ptr nonnull %4) #12
  ret i32 %.08
}